; ModuleID = '60/842.c'
source_filename = "60/842.c"
target datalayout = "e-m:e-p270:32:32-p271:32:32-p272:64:64-i64:64-f80:128-n8:16:32:64-S128"
target triple = "x86_64-pc-linux-gnu"

@.str = private unnamed_addr constant [3 x i8] c"%d\00", align 1
@.str.1 = private unnamed_addr constant [6 x i8] c"%d %d\00", align 1
@.str.2 = private unnamed_addr constant [7 x i8] c"\0A%d %d\00", align 1
@.str.3 = private unnamed_addr constant [6 x i8] c"empty\00", align 1

; Function Attrs: noinline nounwind uwtable
define dso_local i32 @main() #0 {
  %1 = alloca i32, align 4
  %2 = alloca i32, align 4
  %3 = alloca i32, align 4
  %4 = alloca i32, align 4
  %5 = alloca i32, align 4
  %6 = alloca i32, align 4
  %7 = alloca i32, align 4
  %8 = alloca i32, align 4
  store i32 0, i32* %1, align 4
  %9 = call i32 (i8*, ...) @__isoc99_scanf(i8* getelementptr inbounds ([3 x i8], [3 x i8]* @.str, i64 0, i64 0), i32* %2)
  store i32 0, i32* %3, align 4
  store i32 3, i32* %4, align 4
  br label %10

10:                                               ; preds = %79, %0
  %11 = load i32, i32* %4, align 4
  %12 = load i32, i32* %2, align 4
  %13 = icmp sle i32 %11, %12
  br i1 %13, label %14, label %82

14:                                               ; preds = %10
  store i32 0, i32* %5, align 4
  store i32 0, i32* %6, align 4
  store i32 2, i32* %7, align 4
  br label %15

15:                                               ; preds = %28, %14
  %16 = load i32, i32* %7, align 4
  %17 = load i32, i32* %4, align 4
  %18 = icmp slt i32 %16, %17
  br i1 %18, label %19, label %31

19:                                               ; preds = %15
  %20 = load i32, i32* %4, align 4
  %21 = load i32, i32* %7, align 4
  %22 = srem i32 %20, %21
  %23 = icmp eq i32 %22, 0
  br i1 %23, label %24, label %27

24:                                               ; preds = %19
  %25 = load i32, i32* %5, align 4
  %26 = add nsw i32 %25, 1
  store i32 %26, i32* %5, align 4
  br label %27

27:                                               ; preds = %24, %19
  br label %28

28:                                               ; preds = %27
  %29 = load i32, i32* %7, align 4
  %30 = add nsw i32 %29, 1
  store i32 %30, i32* %7, align 4
  br label %15

31:                                               ; preds = %15
  %32 = load i32, i32* %5, align 4
  %33 = icmp eq i32 %32, 0
  br i1 %33, label %34, label %78

34:                                               ; preds = %31
  %35 = load i32, i32* %4, align 4
  %36 = add nsw i32 %35, 2
  %37 = load i32, i32* %2, align 4
  %38 = icmp sle i32 %36, %37
  br i1 %38, label %39, label %78

39:                                               ; preds = %34
  store i32 2, i32* %8, align 4
  br label %40

40:                                               ; preds = %55, %39
  %41 = load i32, i32* %8, align 4
  %42 = load i32, i32* %4, align 4
  %43 = add nsw i32 %42, 2
  %44 = icmp slt i32 %41, %43
  br i1 %44, label %45, label %58

45:                                               ; preds = %40
  %46 = load i32, i32* %4, align 4
  %47 = add nsw i32 %46, 2
  %48 = load i32, i32* %8, align 4
  %49 = srem i32 %47, %48
  %50 = icmp eq i32 %49, 0
  br i1 %50, label %51, label %54

51:                                               ; preds = %45
  %52 = load i32, i32* %6, align 4
  %53 = add nsw i32 %52, 1
  store i32 %53, i32* %6, align 4
  br label %54

54:                                               ; preds = %51, %45
  br label %55

55:                                               ; preds = %54
  %56 = load i32, i32* %8, align 4
  %57 = add nsw i32 %56, 1
  store i32 %57, i32* %8, align 4
  br label %40

58:                                               ; preds = %40
  %59 = load i32, i32* %6, align 4
  %60 = icmp eq i32 %59, 0
  br i1 %60, label %61, label %77

61:                                               ; preds = %58
  %62 = load i32, i32* %3, align 4
  %63 = add nsw i32 %62, 1
  store i32 %63, i32* %3, align 4
  %64 = load i32, i32* %4, align 4
  %65 = icmp eq i32 %64, 3
  br i1 %65, label %66, label %71

66:                                               ; preds = %61
  %67 = load i32, i32* %4, align 4
  %68 = load i32, i32* %4, align 4
  %69 = add nsw i32 %68, 2
  %70 = call i32 (i8*, ...) @printf(i8* getelementptr inbounds ([6 x i8], [6 x i8]* @.str.1, i64 0, i64 0), i32 %67, i32 %69)
  br label %76

71:                                               ; preds = %61
  %72 = load i32, i32* %4, align 4
  %73 = load i32, i32* %4, align 4
  %74 = add nsw i32 %73, 2
  %75 = call i32 (i8*, ...) @printf(i8* getelementptr inbounds ([7 x i8], [7 x i8]* @.str.2, i64 0, i64 0), i32 %72, i32 %74)
  br label %76

76:                                               ; preds = %71, %66
  br label %77

77:                                               ; preds = %76, %58
  br label %78

78:                                               ; preds = %77, %34, %31
  br label %79

79:                                               ; preds = %78
  %80 = load i32, i32* %4, align 4
  %81 = add nsw i32 %80, 1
  store i32 %81, i32* %4, align 4
  br label %10

82:                                               ; preds = %10
  %83 = load i32, i32* %3, align 4
  %84 = icmp eq i32 %83, 0
  br i1 %84, label %85, label %87

85:                                               ; preds = %82
  %86 = call i32 (i8*, ...) @printf(i8* getelementptr inbounds ([6 x i8], [6 x i8]* @.str.3, i64 0, i64 0))
  br label %87

87:                                               ; preds = %85, %82
  ret i32 0
}

declare dso_local i32 @__isoc99_scanf(i8*, ...) #1

declare dso_local i32 @printf(i8*, ...) #1


!llvm.module.flags = !{!0}
!llvm.ident = !{!1}

!0 = !{i32 1, !"wchar_size", i32 4}
!1 = !{!"clang version 10.0.0-4ubuntu1 "}
